target datalayout = "e-m:e-p270:32:32-p271:32:32-p272:64:64-i64:64-i128:128-f80:128-n8:16:32:64-S128"
target triple = "x86_64-pc-linux-gnu"

%struct._PyUnicode_TypeRecord = type { i32, i32, i32, i8, i8, i16 }

; Function Attrs: nounwind uwtable
define internal ptr @gettyperecord(i32 noundef %0) #0 {
  %2 = alloca i32, align 4
  %3 = alloca i32, align 4
  store i32 %0, ptr %2, align 4, !tbaa !4
  call void @llvm.lifetime.start.p0(i64 4, ptr %3) #2
  %4 = load i32, ptr %2, align 4, !tbaa !4
  %5 = icmp uge i32 %4, 1114112
  br i1 %5, label %6, label %7

6:                                                ; preds = %1
  store i32 0, ptr %3, align 4, !tbaa !4
  br label %23

7:                                                ; preds = %1
  %8 = load i32, ptr %2, align 4, !tbaa !4
  %9 = lshr i32 %8, 6
  %10 = zext i32 %9 to i64
  %11 = getelementptr [17408 x i16], ptr @index1, i64 0, i64 %10
  %12 = load i16, ptr %11, align 2, !tbaa !14
  %13 = zext i16 %12 to i32
  store i32 %13, ptr %3, align 4, !tbaa !4
  %14 = load i32, ptr %3, align 4, !tbaa !4
  %15 = shl i32 %14, 6
  %16 = load i32, ptr %2, align 4, !tbaa !4
  %17 = and i32 %16, 63
  %18 = add i32 %15, %17
  %19 = zext i32 %18 to i64
  %20 = getelementptr [29312 x i16], ptr @index2, i64 0, i64 %19
  %21 = load i16, ptr %20, align 2, !tbaa !14
  %22 = zext i16 %21 to i32
  store i32 %22, ptr %3, align 4, !tbaa !4
  br label %23

23:                                               ; preds = %7, %6
  %24 = load i32, ptr %3, align 4, !tbaa !4
  %25 = sext i32 %24 to i64
  %26 = getelementptr [509 x %struct._PyUnicode_TypeRecord], ptr @_PyUnicode_TypeRecords, i64 0, i64 %25
  call void @llvm.lifetime.end.p0(i64 4, ptr %3) #2
  ret ptr %26
}

; Function Attrs: nounwind uwtable
define dso_local i32 @_PyUnicode_IsUppercase(i32 noundef %0) #0 {
  %2 = alloca i32, align 4
  %3 = alloca ptr, align 8
  store i32 %0, ptr %2, align 4, !tbaa !4
  call void @llvm.lifetime.start.p0(i64 8, ptr %3) #2
  %4 = load i32, ptr %2, align 4, !tbaa !4
  %5 = call ptr @gettyperecord(i32 noundef %4)
  store ptr %5, ptr %3, align 8, !tbaa !8
  %6 = load ptr, ptr %3, align 8, !tbaa !8
  %7 = getelementptr inbounds nuw %struct._PyUnicode_TypeRecord, ptr %6, i32 0, i32 5
  %8 = load i16, ptr %7, align 2, !tbaa !10
  %9 = zext i16 %8 to i32
  %10 = and i32 %9, 128
  %11 = icmp ne i32 %10, 0
  %12 = zext i1 %11 to i32
  call void @llvm.lifetime.end.p0(i64 8, ptr %3) #2
  ret i32 %12
}